; Function Attrs: mustprogress nounwind uwtable
define hidden void @_ZN12LIRGenerator11move_to_phiEP10ValueStack(ptr noundef nonnull align 8 dereferenceable(232) %0, ptr nocapture noundef readonly %1) local_unnamed_addr #3 align 2 {
  %3 = alloca %class.PhiResolver, align 8
  %4 = getelementptr inbounds i8, ptr %0, i64 104
  %5 = load ptr, ptr %4, align 8
  %6 = getelementptr inbounds i8, ptr %5, i64 216
  %7 = load ptr, ptr %6, align 8
  %8 = getelementptr inbounds i8, ptr %7, i64 104
  %9 = load ptr, ptr %8, align 8
  %.not.i.i = icmp eq ptr %9, null
  br i1 %.not.i.i, label %_ZNK10BlockBegin13number_of_suxEv.exit.thread, label %_ZNK10BlockBegin13number_of_suxEv.exit

_ZNK10BlockBegin13number_of_suxEv.exit:           ; preds = %2
  %10 = load i32, ptr %9, align 4
  %11 = icmp eq i32 %10, 1
  br i1 %11, label %12, label %_ZNK10BlockBegin13number_of_suxEv.exit.thread

12:                                               ; preds = %_ZNK10BlockBegin13number_of_suxEv.exit
  %13 = getelementptr inbounds i8, ptr %9, i64 8
  %14 = load ptr, ptr %13, align 8
  %15 = load ptr, ptr %14, align 8
  %16 = getelementptr inbounds i8, ptr %15, i64 160
  %17 = load i32, ptr %16, align 4
  %18 = icmp sgt i32 %17, 1
  br i1 %18, label %19, label %_ZNK10BlockBegin13number_of_suxEv.exit.thread

19:                                               ; preds = %12
  store ptr %0, ptr %3, align 8
  %20 = getelementptr inbounds i8, ptr %3, i64 8
  %21 = getelementptr inbounds i8, ptr %0, i64 32
  store ptr %21, ptr %20, align 8
  %22 = getelementptr inbounds i8, ptr %3, i64 16
  store ptr null, ptr %22, align 8
  %23 = getelementptr inbounds i8, ptr %3, i64 24
  %24 = load i64, ptr @_ZN11LIR_OprFact10illegalOprE, align 8
  store i64 %24, ptr %23, align 8
  store i32 0, ptr %21, align 8
  %25 = getelementptr inbounds i8, ptr %0, i64 56
  store i32 0, ptr %25, align 8
  %26 = getelementptr inbounds i8, ptr %0, i64 80
  store i32 0, ptr %26, align 8
  %27 = getelementptr inbounds i8, ptr %15, i64 96
  %28 = load ptr, ptr %27, align 8
  %29 = getelementptr inbounds i8, ptr %28, i64 48
  %30 = load i32, ptr %29, align 4
  %31 = icmp sgt i32 %30, 0
  br i1 %31, label %.lr.ph, label %.critedge

.lr.ph:                                           ; preds = %19
  %32 = getelementptr inbounds i8, ptr %28, i64 56
  %33 = getelementptr inbounds i8, ptr %1, i64 56
  br label %34

34:                                               ; preds = %.lr.ph, %47
  %.038 = phi i32 [ 0, %.lr.ph ], [ %49, %47 ]
  %35 = load ptr, ptr %32, align 8
  %36 = sext i32 %.038 to i64
  %37 = getelementptr inbounds ptr, ptr %35, i64 %36
  %38 = load ptr, ptr %37, align 8
  %cond = icmp eq ptr %38, null
  br i1 %cond, label %47, label %39

39:                                               ; preds = %34
  %40 = load ptr, ptr %33, align 8
  %41 = getelementptr inbounds ptr, ptr %40, i64 %36
  %42 = load ptr, ptr %41, align 8
  call void @_ZN12LIRGenerator11move_to_phiEP11PhiResolverP11InstructionS3_(ptr noundef nonnull align 8 dereferenceable(232) %0, ptr noundef nonnull %3, ptr noundef %42, ptr noundef nonnull %38)
  %43 = getelementptr inbounds i8, ptr %38, i64 24
  %44 = load ptr, ptr %43, align 8
  %45 = getelementptr inbounds i8, ptr %44, i64 8
  %46 = load i32, ptr %45, align 8
  br label %47

47:                                               ; preds = %34, %39
  %48 = phi i32 [ %46, %39 ], [ 1, %34 ]
  %49 = add nsw i32 %48, %.038
  %50 = icmp slt i32 %49, %30
  br i1 %50, label %34, label %.critedge, !llvm.loop !22

.critedge:                                        ; preds = %47, %19
  %51 = getelementptr inbounds i8, ptr %28, i64 24
  %52 = load i32, ptr %51, align 4
  %53 = icmp sgt i32 %52, 0
  br i1 %53, label %.lr.ph40, label %.critedge2

.lr.ph40:                                         ; preds = %.critedge
  %54 = getelementptr inbounds i8, ptr %28, i64 32
  %55 = getelementptr inbounds i8, ptr %1, i64 32
  br label %56

56:                                               ; preds = %.lr.ph40, %73
  %.139 = phi i32 [ 0, %.lr.ph40 ], [ %75, %73 ]
  %57 = load ptr, ptr %54, align 8
  %58 = sext i32 %.139 to i64
  %59 = getelementptr inbounds ptr, ptr %57, i64 %58
  %60 = load ptr, ptr %59, align 8
  %cond37 = icmp eq ptr %60, null
  br i1 %cond37, label %73, label %61

61:                                               ; preds = %56
  %62 = load ptr, ptr %55, align 8
  %63 = getelementptr inbounds ptr, ptr %62, i64 %58
  %64 = load ptr, ptr %63, align 8
  call void @_ZN12LIRGenerator11move_to_phiEP11PhiResolverP11InstructionS3_(ptr noundef nonnull align 8 dereferenceable(232) %0, ptr noundef nonnull %3, ptr noundef %64, ptr noundef nonnull %60)
  %65 = getelementptr inbounds i8, ptr %60, i64 24
  %66 = load ptr, ptr %65, align 8
  %67 = getelementptr inbounds i8, ptr %66, i64 12
  %68 = load i32, ptr %67, align 4
  %69 = icmp eq i32 %68, 8
  br i1 %69, label %73, label %70

70:                                               ; preds = %61
  %71 = getelementptr inbounds i8, ptr %66, i64 8
  %72 = load i32, ptr %71, align 8
  br label %73

73:                                               ; preds = %56, %61, %70
  %74 = phi i32 [ %72, %70 ], [ 1, %61 ], [ 1, %56 ]
  %75 = add nsw i32 %74, %.139
  %76 = icmp slt i32 %75, %52
  br i1 %76, label %56, label %.critedge2, !llvm.loop !23

.critedge2:                                       ; preds = %73, %.critedge
  call void @_ZN11PhiResolverD2Ev(ptr noundef nonnull align 8 dereferenceable(32) %3) #17
  br label %_ZNK10BlockBegin13number_of_suxEv.exit.thread

_ZNK10BlockBegin13number_of_suxEv.exit.thread:    ; preds = %2, %12, %.critedge2, %_ZNK10BlockBegin13number_of_suxEv.exit
  ret void
}